; Function Attrs: mustprogress uwtable
define dso_local void @_ZNK8FileLine17warnContextParentB5cxx11Ev(ptr dead_on_unwind noalias nonnull writable sret(%"class.std::__cxx11::basic_string") align 8 %0, ptr nocapture noundef nonnull readonly align 8 dereferenceable(40) %1) #3 align 2 personality ptr @__gxx_personality_v0 {
  %3 = alloca %"class.std::__cxx11::basic_string", align 8
  %4 = alloca %"class.std::__cxx11::basic_string", align 8
  %5 = alloca %"class.std::__cxx11::basic_string", align 8
  %6 = alloca %"class.std::__cxx11::basic_string", align 8
  %7 = alloca %"class.std::__cxx11::basic_string", align 8
  %8 = alloca %"class.std::__cxx11::basic_string", align 8
  tail call void @_ZNSt7__cxx1112basic_stringIcSt11char_traitsIcESaIcEEC1Ev(ptr noundef nonnull align 8 dereferenceable(32) %0) #20
  %.013.in24 = getelementptr inbounds i8, ptr %1, i64 32
  %.01325 = load ptr, ptr %.013.in24, align 8
  %.not26 = icmp eq ptr %.01325, null
  br i1 %.not26, label %._crit_edge, label %.lr.ph

.lr.ph:                                           ; preds = %2, %35
  %.01327 = phi ptr [ %.013, %35 ], [ %.01325, %2 ]
  %9 = invoke noundef zeroext i1 @_ZNK8FileLine16filenameIsGlobalEv(ptr noundef nonnull align 8 dereferenceable(40) %.01327)
          to label %10 unwind label %11

10:                                               ; preds = %.lr.ph
  br i1 %9, label %._crit_edge, label %13

11:                                               ; preds = %13, %.lr.ph
  %12 = landingpad { ptr, i32 }
          cleanup
  br label %49

13:                                               ; preds = %10
  invoke void @_ZNK8FileLine9warnOtherB5cxx11Ev(ptr dead_on_unwind nonnull writable sret(%"class.std::__cxx11::basic_string") align 8 %7, ptr noundef nonnull align 8 dereferenceable(40) %.01327)
          to label %14 unwind label %11

14:                                               ; preds = %13
  %15 = invoke noundef nonnull align 8 dereferenceable(32) ptr @_ZNSt7__cxx1112basic_stringIcSt11char_traitsIcESaIcEE6appendEPKc(ptr noundef nonnull align 8 dereferenceable(32) %7, ptr noundef nonnull @.str.50)
          to label %16 unwind label %36

16:                                               ; preds = %14
  call void @_ZNSt7__cxx1112basic_stringIcSt11char_traitsIcESaIcEEC1EOS4_(ptr noundef nonnull align 8 dereferenceable(32) %6, ptr noundef nonnull align 8 dereferenceable(32) %15) #20
  call void @llvm.lifetime.start.p0(i64 32, ptr nonnull %3)
  invoke void @_ZNK8FileLine8filenameB5cxx11Ev(ptr dead_on_unwind nonnull writable sret(%"class.std::__cxx11::basic_string") align 8 %3, ptr noundef nonnull align 8 dereferenceable(40) %.01327)
          to label %.noexc unwind label %38

.noexc:                                           ; preds = %16
  invoke void @_ZN4V3Os14filenameNonDirERKNSt7__cxx1112basic_stringIcSt11char_traitsIcESaIcEEE(ptr dead_on_unwind nonnull writable sret(%"class.std::__cxx11::basic_string") align 8 %8, ptr noundef nonnull align 8 dereferenceable(32) %3)
          to label %19 unwind label %17

17:                                               ; preds = %.noexc
  %18 = landingpad { ptr, i32 }
          cleanup
  call void @_ZNSt7__cxx1112basic_stringIcSt11char_traitsIcESaIcEED1Ev(ptr noundef nonnull align 8 dereferenceable(32) %3) #20
  br label %.body

19:                                               ; preds = %.noexc
  call void @_ZNSt7__cxx1112basic_stringIcSt11char_traitsIcESaIcEED1Ev(ptr noundef nonnull align 8 dereferenceable(32) %3) #20
  call void @llvm.lifetime.end.p0(i64 32, ptr nonnull %3)
  %20 = call noundef i64 @_ZNKSt7__cxx1112basic_stringIcSt11char_traitsIcESaIcEE4sizeEv(ptr noundef nonnull align 8 dereferenceable(32) %6) #20, !noalias !169
  %21 = call noundef i64 @_ZNKSt7__cxx1112basic_stringIcSt11char_traitsIcESaIcEE4sizeEv(ptr noundef nonnull align 8 dereferenceable(32) %8) #20, !noalias !169
  %22 = add i64 %21, %20
  %23 = call noundef i64 @_ZNKSt7__cxx1112basic_stringIcSt11char_traitsIcESaIcEE8capacityEv(ptr noundef nonnull align 8 dereferenceable(32) %6) #20, !noalias !169
  %24 = icmp ugt i64 %22, %23
  br i1 %24, label %25, label %29

25:                                               ; preds = %19
  %26 = call noundef i64 @_ZNKSt7__cxx1112basic_stringIcSt11char_traitsIcESaIcEE8capacityEv(ptr noundef nonnull align 8 dereferenceable(32) %8) #20, !noalias !169
  %.not.i = icmp ugt i64 %22, %26
  br i1 %.not.i, label %29, label %27

27:                                               ; preds = %25
  %28 = invoke noundef nonnull align 8 dereferenceable(32) ptr @_ZNSt7__cxx1112basic_stringIcSt11char_traitsIcESaIcEE6insertEmRKS4_(ptr noundef nonnull align 8 dereferenceable(32) %8, i64 noundef 0, ptr noundef nonnull align 8 dereferenceable(32) %6)
          to label %31 unwind label %40

29:                                               ; preds = %25, %19
  %30 = invoke noundef nonnull align 8 dereferenceable(32) ptr @_ZNSt7__cxx1112basic_stringIcSt11char_traitsIcESaIcEE6appendERKS4_(ptr noundef nonnull align 8 dereferenceable(32) %6, ptr noundef nonnull align 8 dereferenceable(32) %8)
          to label %31 unwind label %40

31:                                               ; preds = %27, %29
  %.sink.i = phi ptr [ %28, %27 ], [ %30, %29 ]
  call void @_ZNSt7__cxx1112basic_stringIcSt11char_traitsIcESaIcEEC1EOS4_(ptr noundef nonnull align 8 dereferenceable(32) %5, ptr noundef nonnull align 8 dereferenceable(32) %.sink.i) #20
  %32 = invoke noundef nonnull align 8 dereferenceable(32) ptr @_ZNSt7__cxx1112basic_stringIcSt11char_traitsIcESaIcEE6appendEPKc(ptr noundef nonnull align 8 dereferenceable(32) %5, ptr noundef nonnull @.str.51)
          to label %33 unwind label %42

33:                                               ; preds = %31
  call void @_ZNSt7__cxx1112basic_stringIcSt11char_traitsIcESaIcEEC1EOS4_(ptr noundef nonnull align 8 dereferenceable(32) %4, ptr noundef nonnull align 8 dereferenceable(32) %32) #20
  %34 = invoke noundef nonnull align 8 dereferenceable(32) ptr @_ZNSt7__cxx1112basic_stringIcSt11char_traitsIcESaIcEEpLERKS4_(ptr noundef nonnull align 8 dereferenceable(32) %0, ptr noundef nonnull align 8 dereferenceable(32) %4)
          to label %35 unwind label %44

35:                                               ; preds = %33
  call void @_ZNSt7__cxx1112basic_stringIcSt11char_traitsIcESaIcEED1Ev(ptr noundef nonnull align 8 dereferenceable(32) %4) #20
  call void @_ZNSt7__cxx1112basic_stringIcSt11char_traitsIcESaIcEED1Ev(ptr noundef nonnull align 8 dereferenceable(32) %5) #20
  call void @_ZNSt7__cxx1112basic_stringIcSt11char_traitsIcESaIcEED1Ev(ptr noundef nonnull align 8 dereferenceable(32) %8) #20
  call void @_ZNSt7__cxx1112basic_stringIcSt11char_traitsIcESaIcEED1Ev(ptr noundef nonnull align 8 dereferenceable(32) %6) #20
  call void @_ZNSt7__cxx1112basic_stringIcSt11char_traitsIcESaIcEED1Ev(ptr noundef nonnull align 8 dereferenceable(32) %7) #20
  %.013.in = getelementptr inbounds i8, ptr %.01327, i64 32
  %.013 = load ptr, ptr %.013.in, align 8
  %.not = icmp eq ptr %.013, null
  br i1 %.not, label %._crit_edge, label %.lr.ph, !llvm.loop !172

36:                                               ; preds = %14
  %37 = landingpad { ptr, i32 }
          cleanup
  br label %48

38:                                               ; preds = %16
  %39 = landingpad { ptr, i32 }
          cleanup
  br label %.body

40:                                               ; preds = %29, %27
  %41 = landingpad { ptr, i32 }
          cleanup
  br label %47

42:                                               ; preds = %31
  %43 = landingpad { ptr, i32 }
          cleanup
  br label %46

44:                                               ; preds = %33
  %45 = landingpad { ptr, i32 }
          cleanup
  call void @_ZNSt7__cxx1112basic_stringIcSt11char_traitsIcESaIcEED1Ev(ptr noundef nonnull align 8 dereferenceable(32) %4) #20
  br label %46

46:                                               ; preds = %44, %42
  %.pn = phi { ptr, i32 } [ %45, %44 ], [ %43, %42 ]
  call void @_ZNSt7__cxx1112basic_stringIcSt11char_traitsIcESaIcEED1Ev(ptr noundef nonnull align 8 dereferenceable(32) %5) #20
  br label %47

47:                                               ; preds = %46, %40
  %.pn.pn = phi { ptr, i32 } [ %.pn, %46 ], [ %41, %40 ]
  call void @_ZNSt7__cxx1112basic_stringIcSt11char_traitsIcESaIcEED1Ev(ptr noundef nonnull align 8 dereferenceable(32) %8) #20
  br label %.body

.body:                                            ; preds = %38, %17, %47
  %.pn.pn.pn = phi { ptr, i32 } [ %.pn.pn, %47 ], [ %39, %38 ], [ %18, %17 ]
  call void @_ZNSt7__cxx1112basic_stringIcSt11char_traitsIcESaIcEED1Ev(ptr noundef nonnull align 8 dereferenceable(32) %6) #20
  br label %48

48:                                               ; preds = %.body, %36
  %.pn.pn.pn.pn = phi { ptr, i32 } [ %.pn.pn.pn, %.body ], [ %37, %36 ]
  call void @_ZNSt7__cxx1112basic_stringIcSt11char_traitsIcESaIcEED1Ev(ptr noundef nonnull align 8 dereferenceable(32) %7) #20
  br label %49

._crit_edge:                                      ; preds = %10, %35, %2
  ret void

49:                                               ; preds = %48, %11
  %.pn.pn.pn.pn.pn = phi { ptr, i32 } [ %.pn.pn.pn.pn, %48 ], [ %12, %11 ]
  call void @_ZNSt7__cxx1112basic_stringIcSt11char_traitsIcESaIcEED1Ev(ptr noundef nonnull align 8 dereferenceable(32) %0) #20
  resume { ptr, i32 } %.pn.pn.pn.pn.pn
}